target datalayout = "e-m:e-p270:32:32-p271:32:32-p272:64:64-i64:64-i128:128-f80:128-n8:16:32:64-S128"
target triple = "x86_64-pc-linux-gnu"

%"class.folly::AsyncUDPSocket" = type { %"class.folly::EventHandler", i16, ptr, ptr, %"class.folly::SocketAddress", %"struct.folly::NetworkSocket", i32, %"class.folly::SocketAddress", %"class.folly::SocketAddress", i8, i8, i8, i8, i8, i8, i32, i32, i32, %"class.folly::Optional.13", %"class.folly::Optional.13", %"class.folly::Optional.15", %"class.folly::Optional.13", ptr, i8, i8, i64, i64, i32, %"class.std::unordered_map", %"class.folly::Function", %"class.std::map", %"class.std::map", ptr, %"class.std::map.26", [8 x i8], %"class.folly::Function.31", %"class.folly::netops::DispatcherContainer" }
%"class.folly::EventHandler" = type { ptr, %"class.folly::EventBaseEvent", ptr }
%"class.folly::EventBaseEvent" = type { %struct.event, ptr, ptr, ptr, %"struct.folly::EventCallback" }
%struct.event = type { %struct.event_callback, %union.anon.2, i32, ptr, %union.anon.4, i16, i16, %struct.timeval }
%struct.event_callback = type { %struct.anon, i16, i8, i8, %union.anon.1, ptr }
%struct.anon = type { ptr, ptr }
%union.anon.1 = type { ptr }
%union.anon.2 = type { %struct.anon.3 }
%struct.anon.3 = type { ptr, ptr }
%union.anon.4 = type { %struct.anon.5 }
%struct.anon.5 = type { %struct.anon.6, %struct.timeval }
%struct.anon.6 = type { ptr, ptr }
%struct.timeval = type { i64, i64 }
%"struct.folly::EventCallback" = type { i32, %union.anon.9 }
%union.anon.9 = type { ptr }
%"struct.folly::NetworkSocket" = type { i32 }
%"class.folly::SocketAddress" = type <{ %"union.folly::SocketAddress::AddrStorage", i16, i8, [5 x i8] }>
%"union.folly::SocketAddress::AddrStorage" = type { %"struct.folly::SocketAddress::ExternalUnixAddr", [8 x i8] }
%"struct.folly::SocketAddress::ExternalUnixAddr" = type { ptr, i32 }
%"class.folly::Optional.15" = type { %"struct.folly::Optional<folly::AsyncUDPSocket::TXTime>::StorageTriviallyDestructible" }
%"struct.folly::Optional<folly::AsyncUDPSocket::TXTime>::StorageTriviallyDestructible" = type { %union.anon.16, i8, [3 x i8] }
%union.anon.16 = type { %"struct.folly::AsyncUDPSocket::TXTime" }
%"struct.folly::AsyncUDPSocket::TXTime" = type <{ i32, i8, [3 x i8] }>
%"class.folly::Optional.13" = type { %"struct.folly::Optional<int>::StorageTriviallyDestructible" }
%"struct.folly::Optional<int>::StorageTriviallyDestructible" = type <{ %union.anon.14, i8, [3 x i8] }>
%union.anon.14 = type { i32 }
%"class.std::unordered_map" = type { %"class.std::_Hashtable" }
%"class.std::_Hashtable" = type { ptr, i64, %"struct.std::__detail::_Hash_node_base", i64, %"struct.std::__detail::_Prime_rehash_policy", ptr }
%"struct.std::__detail::_Hash_node_base" = type { ptr }
%"struct.std::__detail::_Prime_rehash_policy" = type { float, i64 }
%"class.folly::Function" = type { %"union.folly::detail::function::Data", ptr, ptr }
%"union.folly::detail::function::Data" = type { %"struct.folly::detail::function::Data::BigTrivialLayout", [24 x i8] }
%"struct.folly::detail::function::Data::BigTrivialLayout" = type { ptr, i64, i64 }
%"class.std::map" = type { %"class.std::_Rb_tree" }
%"class.std::_Rb_tree" = type { %"struct.std::_Rb_tree<folly::SocketOptionKey, std::pair<const folly::SocketOptionKey, int>, std::_Select1st<std::pair<const folly::SocketOptionKey, int>>, std::less<folly::SocketOptionKey>>::_Rb_tree_impl" }
%"struct.std::_Rb_tree<folly::SocketOptionKey, std::pair<const folly::SocketOptionKey, int>, std::_Select1st<std::pair<const folly::SocketOptionKey, int>>, std::less<folly::SocketOptionKey>>::_Rb_tree_impl" = type { [8 x i8], %"struct.std::_Rb_tree_header" }
%"struct.std::_Rb_tree_header" = type { %"struct.std::_Rb_tree_node_base", i64 }
%"struct.std::_Rb_tree_node_base" = type { i32, ptr, ptr, ptr }
%"class.std::map.26" = type { %"class.std::_Rb_tree.27" }
%"class.std::_Rb_tree.27" = type { %"struct.std::_Rb_tree<folly::SocketOptionKey, std::pair<const folly::SocketOptionKey, std::__cxx11::basic_string<char>>, std::_Select1st<std::pair<const folly::SocketOptionKey, std::__cxx11::basic_string<char>>>, std::less<folly::SocketOptionKey>>::_Rb_tree_impl" }
%"struct.std::_Rb_tree<folly::SocketOptionKey, std::pair<const folly::SocketOptionKey, std::__cxx11::basic_string<char>>, std::_Select1st<std::pair<const folly::SocketOptionKey, std::__cxx11::basic_string<char>>>, std::less<folly::SocketOptionKey>>::_Rb_tree_impl" = type { [8 x i8], %"struct.std::_Rb_tree_header" }
%"class.folly::Function.31" = type { %"union.folly::detail::function::Data", ptr, ptr }
%"class.folly::netops::DispatcherContainer" = type { %"class.std::shared_ptr" }
%"class.std::shared_ptr" = type { %"class.std::__shared_ptr" }
%"class.std::__shared_ptr" = type { ptr, %"class.std::__shared_count" }
%"class.std::__shared_count" = type { ptr }

; Function Attrs: mustprogress nounwind uwtable
define linkonce_odr noundef zeroext i1 @_ZNK5folly8OptionalIiE9has_valueEv(ptr noundef nonnull align 4 dereferenceable(8) %0) #0 comdat align 2 {
  %2 = alloca ptr, align 8
  store ptr %0, ptr %2, align 8, !tbaa !208
  %3 = load ptr, ptr %2, align 8
  %4 = getelementptr inbounds nuw %"class.folly::Optional.13", ptr %3, i32 0, i32 0
  %5 = getelementptr inbounds nuw %"struct.folly::Optional<int>::StorageTriviallyDestructible", ptr %4, i32 0, i32 1
  %6 = load i8, ptr %5, align 4, !tbaa !742, !range !114, !noundef !115
  %7 = trunc i8 %6 to i1
  ret i1 %7
}

; Function Attrs: mustprogress nounwind uwtable
define linkonce_odr void @_ZN5folly8OptionalIiE9constructIJiEEEvDpOT_(ptr noundef nonnull align 4 dereferenceable(8) %0, ptr noundef nonnull align 4 dereferenceable(4) %1) #0 comdat align 2 {
  %3 = alloca ptr, align 8
  %4 = alloca ptr, align 8
  %5 = alloca ptr, align 8
  store ptr %0, ptr %3, align 8, !tbaa !208
  store ptr %1, ptr %4, align 8, !tbaa !306
  %6 = load ptr, ptr %3, align 8
  call void @llvm.lifetime.start.p0(i64 8, ptr %5) #25
  %7 = getelementptr inbounds nuw %"class.folly::Optional.13", ptr %6, i32 0, i32 0
  %8 = getelementptr inbounds nuw %"struct.folly::Optional<int>::StorageTriviallyDestructible", ptr %7, i32 0, i32 0
  store ptr %8, ptr %5, align 8, !tbaa !198
  %9 = load ptr, ptr %5, align 8, !tbaa !198
  %10 = load ptr, ptr %4, align 8, !tbaa !306
  %11 = load i32, ptr %10, align 4, !tbaa !74
  store i32 %11, ptr %9, align 4, !tbaa !74
  %12 = getelementptr inbounds nuw %"class.folly::Optional.13", ptr %6, i32 0, i32 0
  %13 = getelementptr inbounds nuw %"struct.folly::Optional<int>::StorageTriviallyDestructible", ptr %12, i32 0, i32 1
  store i8 1, ptr %13, align 4, !tbaa !742
  call void @llvm.lifetime.end.p0(i64 8, ptr %5) #25
  ret void
}

; Function Attrs: mustprogress nounwind uwtable
define linkonce_odr noundef zeroext i1 @_ZNK5folly8OptionalIiE8hasValueEv(ptr noundef nonnull align 4 dereferenceable(8) %0) #0 comdat align 2 {
  %2 = alloca ptr, align 8
  store ptr %0, ptr %2, align 8, !tbaa !208
  %3 = load ptr, ptr %2, align 8
  %4 = call noundef zeroext i1 @_ZNK5folly8OptionalIiE9has_valueEv(ptr noundef nonnull align 4 dereferenceable(8) %3) #25
  ret i1 %4
}

; Function Attrs: mustprogress uwtable
define linkonce_odr void @_ZN5folly8OptionalIiE6assignEOi(ptr noundef nonnull align 4 dereferenceable(8) %0, ptr noundef nonnull align 4 dereferenceable(4) %1) #1 comdat align 2 {
  %3 = alloca ptr, align 8
  %4 = alloca ptr, align 8
  store ptr %0, ptr %3, align 8, !tbaa !208
  store ptr %1, ptr %4, align 8, !tbaa !306
  %5 = load ptr, ptr %3, align 8
  %6 = call noundef zeroext i1 @_ZNK5folly8OptionalIiE8hasValueEv(ptr noundef nonnull align 4 dereferenceable(8) %5) #25
  br i1 %6, label %7, label %12

7:                                                ; preds = %2
  %8 = load ptr, ptr %4, align 8, !tbaa !306
  %9 = load i32, ptr %8, align 4, !tbaa !74
  %10 = getelementptr inbounds nuw %"class.folly::Optional.13", ptr %5, i32 0, i32 0
  %11 = getelementptr inbounds nuw %"struct.folly::Optional<int>::StorageTriviallyDestructible", ptr %10, i32 0, i32 0
  store i32 %9, ptr %11, align 4, !tbaa !190
  br label %14

12:                                               ; preds = %2
  %13 = load ptr, ptr %4, align 8, !tbaa !306
  call void @_ZN5folly8OptionalIiE9constructIJiEEEvDpOT_(ptr noundef nonnull align 4 dereferenceable(8) %5, ptr noundef nonnull align 4 dereferenceable(4) %13)
  br label %14

14:                                               ; preds = %12, %7
  ret void
}

; Function Attrs: mustprogress uwtable
define linkonce_odr noundef nonnull align 4 dereferenceable(8) ptr @_ZN5folly8OptionalIiEaSIiEERS1_OT_(ptr noundef nonnull align 4 dereferenceable(8) %0, ptr noundef nonnull align 4 dereferenceable(4) %1) #1 comdat align 2 {
  %3 = alloca ptr, align 8
  %4 = alloca ptr, align 8
  store ptr %0, ptr %3, align 8, !tbaa !208
  store ptr %1, ptr %4, align 8, !tbaa !306
  %5 = load ptr, ptr %3, align 8
  %6 = load ptr, ptr %4, align 8, !tbaa !306
  call void @_ZN5folly8OptionalIiE6assignEOi(ptr noundef nonnull align 4 dereferenceable(8) %5, ptr noundef nonnull align 4 dereferenceable(4) %6)
  ret ptr %5
}

; Function Attrs: mustprogress uwtable
define noundef zeroext i1 @_ZN5folly14AsyncUDPSocket6setGROEb(ptr noundef nonnull align 16 dereferenceable(768) %0, i1 noundef zeroext %1) #1 align 2 {
  %3 = alloca ptr, align 8
  %4 = alloca i8, align 1
  %5 = alloca i32, align 4
  %6 = alloca i32, align 4
  %7 = alloca %"struct.folly::NetworkSocket", align 4
  %8 = alloca i32, align 4
  store ptr %0, ptr %3, align 8, !tbaa !7
  %9 = zext i1 %1 to i8
  store i8 %9, ptr %4, align 1, !tbaa !110
  %10 = load ptr, ptr %3, align 8
  call void @llvm.lifetime.start.p0(i64 4, ptr %5) #25
  %11 = load i8, ptr %4, align 1, !tbaa !110, !range !114, !noundef !115
  %12 = trunc i8 %11 to i1
  %13 = select i1 %12, i32 1, i32 0
  store i32 %13, ptr %5, align 4, !tbaa !74
  call void @llvm.lifetime.start.p0(i64 4, ptr %6) #25
  %14 = getelementptr inbounds nuw %"class.folly::AsyncUDPSocket", ptr %10, i32 0, i32 5
  call void @llvm.memcpy.p0.p0.i64(ptr align 4 %7, ptr align 16 %14, i64 4, i1 false), !tbaa.struct !77
  %15 = getelementptr inbounds nuw %"struct.folly::NetworkSocket", ptr %7, i32 0, i32 0
  %16 = load i32, ptr %15, align 4
  %17 = call noundef i32 @_ZN5folly6netops10setsockoptENS_13NetworkSocketEiiPKvj(i32 %16, i32 noundef 17, i32 noundef 104, ptr noundef %5, i32 noundef 4)
  store i32 %17, ptr %6, align 4, !tbaa !74
  call void @llvm.lifetime.start.p0(i64 4, ptr %8) #25
  %18 = load i32, ptr %6, align 4, !tbaa !74
  %19 = icmp ne i32 %18, 0
  br i1 %19, label %20, label %21

20:                                               ; preds = %2
  br label %23

21:                                               ; preds = %2
  %22 = load i32, ptr %5, align 4, !tbaa !74
  br label %23

23:                                               ; preds = %21, %20
  %24 = phi i32 [ -1, %20 ], [ %22, %21 ]
  store i32 %24, ptr %8, align 4, !tbaa !74
  %25 = getelementptr inbounds nuw %"class.folly::AsyncUDPSocket", ptr %10, i32 0, i32 19
  %26 = call noundef nonnull align 4 dereferenceable(8) ptr @_ZN5folly8OptionalIiEaSIiEERS1_OT_(ptr noundef nonnull align 4 dereferenceable(8) %25, ptr noundef nonnull align 4 dereferenceable(4) %8)
  call void @llvm.lifetime.end.p0(i64 4, ptr %8) #25
  %27 = load i32, ptr %6, align 4, !tbaa !74
  %28 = icmp ne i32 %27, 0
  %29 = xor i1 %28, true
  call void @llvm.lifetime.end.p0(i64 4, ptr %6) #25
  call void @llvm.lifetime.end.p0(i64 4, ptr %5) #25
  ret i1 %29
}