; Function Attrs: mustprogress uwtable
define noundef zeroext i1 @_ZN5folly14AsyncUDPSocket6setGROEb(ptr noundef nonnull align 16 captures(none) dereferenceable(768) initializes((340, 344)) %0, i1 noundef zeroext %1) local_unnamed_addr #1 align 2 {
  %3 = alloca i32, align 4
  call void @llvm.lifetime.start.p0(i64 4, ptr nonnull %3) #36
  %4 = zext i1 %1 to i32
  store i32 %4, ptr %3, align 4, !tbaa !34
  %5 = getelementptr inbounds nuw i8, ptr %0, i64 240
  %.sroa.0.0.copyload = load i32, ptr %5, align 16, !tbaa !34
  %6 = call noundef i32 @_ZN5folly6netops10setsockoptENS_13NetworkSocketEiiPKvj(i32 %.sroa.0.0.copyload, i32 noundef 17, i32 noundef 104, ptr noundef nonnull %3, i32 noundef 4)
  %7 = load i32, ptr %3, align 4
  %8 = getelementptr inbounds nuw i8, ptr %0, i64 344
  %9 = load i8, ptr %8, align 8, !tbaa !173, !range !21, !noundef !22
  %10 = trunc nuw i8 %9 to i1
  br i1 %10, label %_ZN5folly8OptionalIiEaSIiEERS1_OT_.exit, label %11

11:                                               ; preds = %2
  store i8 1, ptr %8, align 8, !tbaa !173
  br label %_ZN5folly8OptionalIiEaSIiEERS1_OT_.exit

_ZN5folly8OptionalIiEaSIiEERS1_OT_.exit:          ; preds = %2, %11
  %12 = getelementptr inbounds nuw i8, ptr %0, i64 340
  %.not = icmp eq i32 %6, 0
  %13 = select i1 %.not, i32 %7, i32 -1
  store i32 %13, ptr %12, align 4, !tbaa !33
  call void @llvm.lifetime.end.p0(i64 4, ptr nonnull %3) #36
  ret i1 %.not
}